c__builtin__
set
p1
((lp2
V-t-en
p3
aVen
p4
aV-en
p5
aVvs
p6
aV-vs
p7
aV-les
p8
aV-moi
p9
aV-t-y
p10
aVm'
p11
aV-la
p12
aV-le
p13
aV-nous
p14
aVtoi
p15
aVlui
p16
aVte
p17
aV-y
p18
aVvous
p19
aV-toi
p20
aVmoi
p21
aVle
p22
aVt'
p23
aV-m'
p24
aVme
p25
aVl'
p26
aVla
p27
aV-lui
p28
aVles
p29
aVleur
p30
aV-vous
p31
aVy
aVnous
p32
aV-leur
p33
aV-t'
p34
atRp35
.