c__builtin__
set
p1
((lp2
V-elle
p3
aV-elles
p4
aV-ce
p5
aVce
p6
aVvs
p7
aVil
p8
aVj'
p9
aV-je
p10
aV-vs
p11
aVelles
p12
aVtu
p13
aV-t-ils
p14
aV-nous
p15
aV-tu
p16
aV-t-on
p17
aV-t-il
p18
aV-t-elle
p19
aVils
p20
aVvous
p21
aV-ils
p22
aVc'
p23
aVelle
p24
aV-t-elles
p25
aVt'
p26
aVje
p27
aVon
p28
aV-il
p29
aVch'
p30
aV-vous
p31
aVl'on
p32
aVnous
p33
aV-on
p34
atRp35
.