c__builtin__
set
p1
((lp2
Vvotre
p3
aVtel
p4
aVledit
p5
aVles
p6
aVcertain
p7
aVtelle
p8
aVce
p9
aVson
p10
aVquelles
p11
aVquelques
p12
aVses
p13
aVtes
p14
aVmes
p15
aVtels
p16
aVquelque
p17
aVleurs
p18
aVaucune
p19
aVtoutes
p20
aVquel
p21
aVd'
p22
aVtoute
p23
aVchaque
p24
aVton
p25
aVplusieurs
p26
aVtout
p27
aVnos
p28
aVvos
p29
aVtous
p30
aVde
p31
aVla
p32
aVct'
p33
aVcertaine
p34
aVnotre
p35
aVl'
p36
aVlesdites
p37
aVquels
p38
aVcertains
p39
aVcet
p40
aVle
p41
aVces
p42
aVmon
p43
aVqqs
p44
aVcertaines
p45
aVvot'
p46
aVdu
p47
aVtelles
p48
aVqq
p49
aVquelqu'
p50
aVma
p51
aVquelle
p52
aVladite
p53
aVaucun
p54
aVdes
p55
aVcette
p56
aVun
p57
aVleur
p58
aVune
p59
aVc't'
p60
aVsa
p61
aVta
p62
aVqqes
p63
aVlesdits
p64
atRp65
.