c__builtin__
set
p1
((lp2
Vcertain
p3
aVquelques
p4
aVquelque
p5
aVaucune
p6
aVtoutes
p7
aVtoute
p8
aVchaque
p9
aVd'
p10
aVplusieurs
p11
aVun
p12
aVcertaine
p13
aVde
p14
aVcertains
p15
aVqqs
p16
aVcertaines
p17
aVdu
p18
aVqq
p19
aVquelqu'
p20
aVaucun
p21
aVdes
p22
aVtous
p23
aVtout
p24
aVune
p25
aVqqes
p26
atRp27
.